target datalayout = "e-m:e-p270:32:32-p271:32:32-p272:64:64-i64:64-i128:128-f80:128-n8:16:32:64-S128"
target triple = "x86_64-pc-linux-gnu"

; Function Attrs: nounwind uwtable
define i32 @tng_particle_data_vector_interval_get(ptr noundef %0, i64 noundef %1, i64 noundef %2, i64 noundef %3, i8 noundef signext %4, ptr noundef %5, ptr noundef %6, ptr noundef %7, ptr noundef %8, ptr noundef %9) #0 {
  %11 = alloca ptr, align 8
  %12 = alloca i64, align 8
  %13 = alloca i64, align 8
  %14 = alloca i64, align 8
  %15 = alloca i8, align 1
  %16 = alloca ptr, align 8
  %17 = alloca ptr, align 8
  %18 = alloca ptr, align 8
  %19 = alloca ptr, align 8
  %20 = alloca ptr, align 8
  store ptr %0, ptr %11, align 8, !tbaa !3
  store i64 %1, ptr %12, align 8, !tbaa !26
  store i64 %2, ptr %13, align 8, !tbaa !26
  store i64 %3, ptr %14, align 8, !tbaa !26
  store i8 %4, ptr %15, align 1, !tbaa !23
  store ptr %5, ptr %16, align 8, !tbaa !391
  store ptr %6, ptr %17, align 8, !tbaa !47
  store ptr %7, ptr %18, align 8, !tbaa !47
  store ptr %8, ptr %19, align 8, !tbaa !47
  store ptr %9, ptr %20, align 8, !tbaa !19
  %21 = load ptr, ptr %11, align 8, !tbaa !3
  %22 = load i64, ptr %12, align 8, !tbaa !26
  %23 = load i64, ptr %13, align 8, !tbaa !26
  %24 = load i64, ptr %14, align 8, !tbaa !26
  %25 = load i8, ptr %15, align 1, !tbaa !23
  %26 = load ptr, ptr %16, align 8, !tbaa !391
  %27 = load ptr, ptr %17, align 8, !tbaa !47
  %28 = load ptr, ptr %18, align 8, !tbaa !47
  %29 = load ptr, ptr %19, align 8, !tbaa !47
  %30 = load ptr, ptr %20, align 8, !tbaa !19
  %31 = call i32 @tng_gen_data_vector_interval_get(ptr noundef %21, i64 noundef %22, i32 noundef 1, i64 noundef %23, i64 noundef %24, i8 noundef signext %25, ptr noundef %26, ptr noundef %27, ptr noundef %28, ptr noundef %29, ptr noundef %30)
  ret i32 %31
}

; Function Attrs: nounwind uwtable
define i32 @tng_util_vel_read(ptr noundef %0, ptr noundef %1, ptr noundef %2) #0 {
  %4 = alloca i32, align 4
  %5 = alloca ptr, align 8
  %6 = alloca ptr, align 8
  %7 = alloca ptr, align 8
  %8 = alloca i64, align 8
  %9 = alloca i64, align 8
  %10 = alloca i64, align 8
  %11 = alloca i8, align 1
  %12 = alloca i32, align 4
  %13 = alloca i32, align 4
  store ptr %0, ptr %5, align 8, !tbaa !3
  store ptr %1, ptr %6, align 8, !tbaa !429
  store ptr %2, ptr %7, align 8, !tbaa !47
  call void @llvm.lifetime.start.p0(i64 8, ptr %8) #11
  call void @llvm.lifetime.start.p0(i64 8, ptr %9) #11
  call void @llvm.lifetime.start.p0(i64 8, ptr %10) #11
  call void @llvm.lifetime.start.p0(i64 1, ptr %11) #11
  call void @llvm.lifetime.start.p0(i64 4, ptr %12) #11
  %14 = load ptr, ptr %5, align 8, !tbaa !3
  %15 = call i32 @tng_num_frames_get(ptr noundef %14, ptr noundef %8)
  store i32 %15, ptr %12, align 4, !tbaa !20
  %16 = load i32, ptr %12, align 4, !tbaa !20
  %17 = icmp ne i32 %16, 0
  br i1 %17, label %18, label %20

18:                                               ; preds = %3
  %19 = load i32, ptr %12, align 4, !tbaa !20
  store i32 %19, ptr %4, align 4
  store i32 1, ptr %13, align 4
  br label %36

20:                                               ; preds = %3
  %21 = load ptr, ptr %5, align 8, !tbaa !3
  %22 = load i64, ptr %8, align 8, !tbaa !26
  %23 = sub nsw i64 %22, 1
  %24 = load ptr, ptr %6, align 8, !tbaa !429
  %25 = load ptr, ptr %7, align 8, !tbaa !47
  %26 = call i32 @tng_particle_data_vector_interval_get(ptr noundef %21, i64 noundef 268435458, i64 noundef 0, i64 noundef %23, i8 noundef signext 1, ptr noundef %24, ptr noundef %9, ptr noundef %25, ptr noundef %10, ptr noundef %11)
  store i32 %26, ptr %12, align 4, !tbaa !20
  %27 = load i32, ptr %12, align 4, !tbaa !20
  %28 = icmp eq i32 %27, 0
  br i1 %28, label %29, label %34

29:                                               ; preds = %20
  %30 = load i8, ptr %11, align 1, !tbaa !23
  %31 = sext i8 %30 to i32
  %32 = icmp ne i32 %31, 2
  br i1 %32, label %33, label %34

33:                                               ; preds = %29
  store i32 1, ptr %4, align 4
  store i32 1, ptr %13, align 4
  br label %36

34:                                               ; preds = %29, %20
  %35 = load i32, ptr %12, align 4, !tbaa !20
  store i32 %35, ptr %4, align 4
  store i32 1, ptr %13, align 4
  br label %36

36:                                               ; preds = %34, %33, %18
  call void @llvm.lifetime.end.p0(i64 4, ptr %12) #11
  call void @llvm.lifetime.end.p0(i64 1, ptr %11) #11
  call void @llvm.lifetime.end.p0(i64 8, ptr %10) #11
  call void @llvm.lifetime.end.p0(i64 8, ptr %9) #11
  call void @llvm.lifetime.end.p0(i64 8, ptr %8) #11
  %37 = load i32, ptr %4, align 4
  ret i32 %37
}