; Function Attrs: nounwind uwtable
define range(i32 0, 3) i32 @tng_util_vel_read(ptr noundef %0, ptr noundef captures(none) %1, ptr noundef captures(none) %2) local_unnamed_addr #4 {
  %4 = alloca i64, align 8
  %5 = alloca i64, align 8
  %6 = alloca i64, align 8
  %7 = alloca i8, align 1
  call void @llvm.lifetime.start.p0(i64 8, ptr nonnull %4) #26
  call void @llvm.lifetime.start.p0(i64 8, ptr nonnull %5) #26
  call void @llvm.lifetime.start.p0(i64 8, ptr nonnull %6) #26
  call void @llvm.lifetime.start.p0(i64 1, ptr nonnull %7) #26
  %8 = call i32 @tng_num_frames_get(ptr noundef %0, ptr noundef nonnull %4)
  %.not = icmp eq i32 %8, 0
  br i1 %.not, label %9, label %16

9:                                                ; preds = %3
  %10 = load i64, ptr %4, align 8, !tbaa !38
  %11 = add nsw i64 %10, -1
  %12 = call fastcc range(i32 0, 3) i32 @tng_gen_data_vector_interval_get(ptr noundef %0, i64 noundef 268435458, i32 noundef 1, i64 noundef 0, i64 noundef %11, i8 noundef signext 1, ptr noundef %1, ptr noundef nonnull %5, ptr noundef %2, ptr noundef nonnull %6, ptr noundef nonnull %7)
  %13 = icmp eq i32 %12, 0
  %14 = load i8, ptr %7, align 1
  %15 = icmp ne i8 %14, 2
  %or.cond = select i1 %13, i1 %15, i1 false
  %. = select i1 %or.cond, i32 1, i32 %12
  br label %16

16:                                               ; preds = %9, %3
  %.0 = phi i32 [ %8, %3 ], [ %., %9 ]
  call void @llvm.lifetime.end.p0(i64 1, ptr nonnull %7) #26
  call void @llvm.lifetime.end.p0(i64 8, ptr nonnull %6) #26
  call void @llvm.lifetime.end.p0(i64 8, ptr nonnull %5) #26
  call void @llvm.lifetime.end.p0(i64 8, ptr nonnull %4) #26
  ret i32 %.0
}